target datalayout = "e-m:e-p270:32:32-p271:32:32-p272:64:64-i64:64-i128:128-f80:128-n8:16:32:64-S128"
target triple = "x86_64-pc-linux-gnu"

; Function Attrs: nounwind uwtable
define internal i32 @Abc_LitNot(i32 noundef %0) #0 {
  %2 = alloca i32, align 4
  store i32 %0, ptr %2, align 4
  %3 = load i32, ptr %2, align 4
  %4 = xor i32 %3, 1
  ret i32 %4
}

; Function Attrs: nounwind uwtable
define void @Gia_ManBuild1Hot_rec(ptr noundef %0, ptr noundef %1, i32 noundef %2, ptr noundef %3, ptr noundef %4) #0 {
  %6 = alloca ptr, align 8
  %7 = alloca ptr, align 8
  %8 = alloca i32, align 4
  %9 = alloca ptr, align 8
  %10 = alloca ptr, align 8
  %11 = alloca i32, align 4
  %12 = alloca i32, align 4
  %13 = alloca i32, align 4
  %14 = alloca i32, align 4
  store ptr %0, ptr %6, align 8
  store ptr %1, ptr %7, align 8
  store i32 %2, ptr %8, align 4
  store ptr %3, ptr %9, align 8
  store ptr %4, ptr %10, align 8
  %15 = load i32, ptr %8, align 4
  %16 = icmp eq i32 %15, 1
  br i1 %16, label %17, label %27

17:                                               ; preds = %5
  %18 = load ptr, ptr %7, align 8
  %19 = getelementptr inbounds i32, ptr %18, i64 0
  %20 = load i32, ptr %19, align 4
  %21 = call i32 @Abc_LitNot(i32 noundef %20)
  %22 = load ptr, ptr %9, align 8
  store i32 %21, ptr %22, align 4
  %23 = load ptr, ptr %7, align 8
  %24 = getelementptr inbounds i32, ptr %23, i64 0
  %25 = load i32, ptr %24, align 4
  %26 = load ptr, ptr %10, align 8
  store i32 %25, ptr %26, align 4
  br label %58

27:                                               ; preds = %5
  %28 = load ptr, ptr %6, align 8
  %29 = load ptr, ptr %7, align 8
  %30 = load i32, ptr %8, align 4
  %31 = sdiv i32 %30, 2
  call void @Gia_ManBuild1Hot_rec(ptr noundef %28, ptr noundef %29, i32 noundef %31, ptr noundef %11, ptr noundef %12)
  %32 = load ptr, ptr %6, align 8
  %33 = load ptr, ptr %7, align 8
  %34 = load i32, ptr %8, align 4
  %35 = sdiv i32 %34, 2
  %36 = sext i32 %35 to i64
  %37 = getelementptr inbounds i32, ptr %33, i64 %36
  %38 = load i32, ptr %8, align 4
  %39 = load i32, ptr %8, align 4
  %40 = sdiv i32 %39, 2
  %41 = sub nsw i32 %38, %40
  call void @Gia_ManBuild1Hot_rec(ptr noundef %32, ptr noundef %37, i32 noundef %41, ptr noundef %13, ptr noundef %14)
  %42 = load ptr, ptr %6, align 8
  %43 = load i32, ptr %11, align 4
  %44 = load i32, ptr %13, align 4
  %45 = call i32 @Gia_ManHashAnd(ptr noundef %42, i32 noundef %43, i32 noundef %44)
  %46 = load ptr, ptr %9, align 8
  store i32 %45, ptr %46, align 4
  %47 = load ptr, ptr %6, align 8
  %48 = load ptr, ptr %6, align 8
  %49 = load i32, ptr %11, align 4
  %50 = load i32, ptr %14, align 4
  %51 = call i32 @Gia_ManHashAnd(ptr noundef %48, i32 noundef %49, i32 noundef %50)
  %52 = load ptr, ptr %6, align 8
  %53 = load i32, ptr %13, align 4
  %54 = load i32, ptr %12, align 4
  %55 = call i32 @Gia_ManHashAnd(ptr noundef %52, i32 noundef %53, i32 noundef %54)
  %56 = call i32 @Gia_ManHashOr(ptr noundef %47, i32 noundef %51, i32 noundef %55)
  %57 = load ptr, ptr %10, align 8
  store i32 %56, ptr %57, align 4
  br label %58

58:                                               ; preds = %27, %17
  ret void
}