; Function Attrs: nounwind uwtable
define void @Gia_ManBuild1Hot_rec(ptr noundef %0, ptr noundef %1, i32 noundef %2, ptr noundef writeonly captures(none) initializes((0, 4)) %3, ptr noundef writeonly captures(none) initializes((0, 4)) %4) local_unnamed_addr #0 {
  %6 = alloca i32, align 4
  %7 = alloca i32, align 4
  %8 = alloca i32, align 4
  %9 = alloca i32, align 4
  %10 = icmp eq i32 %2, 1
  br i1 %10, label %11, label %15

11:                                               ; preds = %5
  %12 = load i32, ptr %1, align 4
  %13 = xor i32 %12, 1
  store i32 %13, ptr %3, align 4
  %14 = load i32, ptr %1, align 4
  br label %28

15:                                               ; preds = %5
  %16 = sdiv i32 %2, 2
  call void @Gia_ManBuild1Hot_rec(ptr noundef %0, ptr noundef %1, i32 noundef %16, ptr noundef nonnull %6, ptr noundef nonnull %7)
  %17 = sext i32 %16 to i64
  %18 = getelementptr inbounds i32, ptr %1, i64 %17
  %19 = sub nsw i32 %2, %16
  call void @Gia_ManBuild1Hot_rec(ptr noundef %0, ptr noundef %18, i32 noundef %19, ptr noundef nonnull %8, ptr noundef nonnull %9)
  %20 = load i32, ptr %6, align 4
  %21 = load i32, ptr %8, align 4
  %22 = tail call i32 @Gia_ManHashAnd(ptr noundef %0, i32 noundef %20, i32 noundef %21) #24
  store i32 %22, ptr %3, align 4
  %23 = load i32, ptr %9, align 4
  %24 = tail call i32 @Gia_ManHashAnd(ptr noundef %0, i32 noundef %20, i32 noundef %23) #24
  %25 = load i32, ptr %7, align 4
  %26 = tail call i32 @Gia_ManHashAnd(ptr noundef %0, i32 noundef %21, i32 noundef %25) #24
  %27 = tail call i32 @Gia_ManHashOr(ptr noundef %0, i32 noundef %24, i32 noundef %26) #24
  br label %28

28:                                               ; preds = %15, %11
  %storemerge = phi i32 [ %27, %15 ], [ %14, %11 ]
  store i32 %storemerge, ptr %4, align 4
  ret void
}